; Function Attrs: mustprogress nofree norecurse nosync nounwind willreturn memory(write, argmem: readwrite, inaccessiblemem: none) uwtable
define dso_local void @lua_pushnil(ptr noundef captures(none) %0) local_unnamed_addr #0 {
  %2 = getelementptr inbounds nuw i8, ptr %0, i64 16
  %3 = load ptr, ptr %2, align 8, !tbaa !4
  %4 = getelementptr inbounds nuw i8, ptr %3, i64 8
  store i32 0, ptr %4, align 8, !tbaa !20
  %5 = getelementptr inbounds nuw i8, ptr %3, i64 16
  store ptr %5, ptr %2, align 8, !tbaa !4
  ret void
}